; Function Attrs: mustprogress uwtable
define hidden noundef zeroext i1 @_ZNK3sls8bv_terms15is_bv_predicateEP4expr(ptr noundef nonnull align 8 dereferenceable(64) %0, ptr noundef %1) local_unnamed_addr #3 align 2 {
  %.not = icmp eq ptr %1, null
  br i1 %.not, label %39, label %3

3:                                                ; preds = %2
  %4 = getelementptr inbounds nuw i8, ptr %1, i64 4
  %5 = load i32, ptr %4, align 4
  %6 = and i32 %5, 65535
  %7 = icmp eq i32 %6, 0
  br i1 %7, label %8, label %39

8:                                                ; preds = %3
  %9 = getelementptr inbounds nuw i8, ptr %0, i64 8
  %10 = load ptr, ptr %9, align 8, !tbaa !46
  %11 = tail call noundef zeroext i1 @_ZNK11ast_manager7is_boolEPK4expr(ptr noundef nonnull align 8 dereferenceable(976) %10, ptr noundef nonnull %1)
  br i1 %11, label %12, label %39

12:                                               ; preds = %8
  %13 = getelementptr inbounds nuw i8, ptr %1, i64 16
  %14 = load ptr, ptr %13, align 8, !tbaa !67
  %15 = getelementptr inbounds nuw i8, ptr %14, i64 24
  %16 = load ptr, ptr %15, align 8, !tbaa !72
  %17 = icmp eq ptr %16, null
  br i1 %17, label %_ZNK3app13get_family_idEv.exit, label %18

18:                                               ; preds = %12
  %19 = load i32, ptr %16, align 8, !tbaa !77
  br label %_ZNK3app13get_family_idEv.exit

_ZNK3app13get_family_idEv.exit:                   ; preds = %12, %18
  %20 = phi i32 [ %19, %18 ], [ -1, %12 ]
  %21 = getelementptr inbounds nuw i8, ptr %0, i64 16
  %22 = load i32, ptr %21, align 8, !tbaa !66
  %23 = icmp eq i32 %20, %22
  br i1 %23, label %39, label %24

24:                                               ; preds = %_ZNK3app13get_family_idEv.exit
  %25 = load i32, ptr %4, align 4
  %26 = and i32 %25, 65535
  %27 = icmp ne i32 %26, 0
  %brmerge = or i1 %17, %27
  br i1 %brmerge, label %_ZNK11ast_manager5is_eqEPK4expr.exit.thread, label %_ZNK11ast_manager5is_eqEPK4expr.exit

_ZNK11ast_manager5is_eqEPK4expr.exit:             ; preds = %24
  %28 = load i32, ptr %16, align 8, !tbaa !77
  %29 = icmp eq i32 %28, 0
  %30 = getelementptr inbounds nuw i8, ptr %16, i64 4
  %31 = load i32, ptr %30, align 4
  %32 = icmp eq i32 %31, 2
  %33 = select i1 %29, i1 %32, i1 false
  br i1 %33, label %34, label %_ZNK11ast_manager5is_eqEPK4expr.exit.thread

34:                                               ; preds = %_ZNK11ast_manager5is_eqEPK4expr.exit
  %35 = getelementptr inbounds nuw i8, ptr %1, i64 32
  %36 = load ptr, ptr %35, align 8, !tbaa !61
  %37 = tail call noundef ptr @_ZNK4expr8get_sortEv(ptr noundef nonnull align 4 dereferenceable(16) %36)
  %38 = tail call noundef zeroext i1 @_ZNK14bv_recognizers10is_bv_sortEPK4sort(ptr noundef nonnull align 4 dereferenceable(4) %21, ptr noundef %37)
  br i1 %38, label %39, label %_ZNK11ast_manager5is_eqEPK4expr.exit.thread

_ZNK11ast_manager5is_eqEPK4expr.exit.thread:      ; preds = %24, %34, %_ZNK11ast_manager5is_eqEPK4expr.exit
  br label %39

39:                                               ; preds = %_ZNK11ast_manager5is_eqEPK4expr.exit.thread, %_ZNK3app13get_family_idEv.exit, %34, %2, %3, %8
  %.0 = phi i1 [ false, %8 ], [ false, %3 ], [ false, %2 ], [ false, %_ZNK11ast_manager5is_eqEPK4expr.exit.thread ], [ true, %_ZNK3app13get_family_idEv.exit ], [ true, %34 ]
  ret i1 %.0
}